target datalayout = "e-m:e-p270:32:32-p271:32:32-p272:64:64-i64:64-i128:128-f80:128-n8:16:32:64-S128"
target triple = "x86_64-pc-linux-gnu"

; Function Attrs: alwaysinline mustprogress nounwind uwtable
define internal noundef i32 @_ZL5clz64y(i64 noundef %0) #7 {
  %2 = alloca i64, align 8
  store i64 %0, ptr %2, align 8
  %3 = load i64, ptr %2, align 8
  %4 = call i64 @llvm.ctlz.i64(i64 %3, i1 true)
  %5 = trunc i64 %4 to i32
  ret i32 %5
}

; Function Attrs: alwaysinline mustprogress uwtable
define internal noundef i64 @_ZL6lg2_64y(i64 noundef %0) #6 {
  %2 = alloca i64, align 8
  %3 = alloca i64, align 8
  store i64 %0, ptr %3, align 8
  %4 = load i64, ptr %3, align 8
  %5 = icmp ne i64 %4, 0
  br i1 %5, label %7, label %6

6:                                                ; preds = %1
  store i64 0, ptr %2, align 8
  br label %12

7:                                                ; preds = %1
  %8 = load i64, ptr %3, align 8
  %9 = call noundef i32 @_ZL5clz64y(i64 noundef %8)
  %10 = sub i32 63, %9
  %11 = zext i32 %10 to i64
  store i64 %11, ptr %2, align 8
  br label %12

12:                                               ; preds = %7, %6
  %13 = load i64, ptr %2, align 8
  ret i64 %13
}

; Function Attrs: mustprogress uwtable
define internal noundef i32 @_ZN3ue2L14calcPackedBitsEy(i64 noundef %0) #0 {
  %2 = alloca i32, align 4
  %3 = alloca i64, align 8
  %4 = alloca i32, align 4
  store i64 %0, ptr %3, align 8
  %5 = load i64, ptr %3, align 8
  %6 = icmp ule i64 %5, 1
  br i1 %6, label %7, label %8

7:                                                ; preds = %1
  store i32 1, ptr %2, align 4
  br label %18

8:                                                ; preds = %1
  call void @llvm.lifetime.start.p0(i64 4, ptr %4) #16
  %9 = load i64, ptr %3, align 8
  %10 = sub i64 %9, 1
  %11 = call noundef i64 @_ZL6lg2_64y(i64 noundef %10)
  %12 = add i64 %11, 1
  %13 = trunc i64 %12 to i32
  store i32 %13, ptr %4, align 4
  br label %14

14:                                               ; preds = %8
  br label %15

15:                                               ; preds = %14
  br label %16

16:                                               ; preds = %15
  %17 = load i32, ptr %4, align 4
  store i32 %17, ptr %2, align 4
  call void @llvm.lifetime.end.p0(i64 4, ptr %4) #16
  br label %18

18:                                               ; preds = %16, %7
  %19 = load i32, ptr %2, align 4
  ret i32 %19
}

; Function Attrs: mustprogress uwtable
define hidden noundef i32 @_ZN3ue215calcPackedBytesEy(i64 noundef %0) #0 {
  %2 = alloca i64, align 8
  %3 = alloca i32, align 4
  store i64 %0, ptr %2, align 8
  call void @llvm.lifetime.start.p0(i64 4, ptr %3) #16
  %4 = load i64, ptr %2, align 8
  %5 = call noundef i32 @_ZN3ue2L14calcPackedBitsEy(i64 noundef %4)
  %6 = add i32 %5, 7
  %7 = udiv i32 %6, 8
  store i32 %7, ptr %3, align 4
  br label %8

8:                                                ; preds = %1
  br label %9

9:                                                ; preds = %8
  br label %10

10:                                               ; preds = %9
  %11 = load i32, ptr %3, align 4
  call void @llvm.lifetime.end.p0(i64 4, ptr %3) #16
  ret i32 %11
}