; Function Attrs: mustprogress nofree norecurse nosync nounwind willreturn memory(none) uwtable
define hidden noundef range(i32 1, 9) i32 @_ZN3ue215calcPackedBytesEy(i64 noundef %0) local_unnamed_addr #0 {
  %2 = icmp ult i64 %0, 2
  %3 = add i64 %0, -1
  %4 = tail call range(i64 0, 65) i64 @llvm.ctlz.i64(i64 range(i64 1, -1) %3, i1 true)
  %5 = trunc nuw nsw i64 %4 to i32
  %6 = sub nuw nsw i32 71, %5
  %7 = lshr i32 %6, 3
  %8 = select i1 %2, i32 1, i32 %7
  ret i32 %8
}